target datalayout = "e-m:e-p270:32:32-p271:32:32-p272:64:64-i64:64-i128:128-f80:128-n8:16:32:64-S128"
target triple = "x86_64-pc-linux-gnu"

%"class.llvm::SmallVectorBase" = type { ptr, i32, i32 }
%"class.(anonymous namespace)::StructurizeCFGLegacyPass" = type { %"class.llvm::RegionPass.base", i8, [3 x i8] }
%"class.llvm::RegionPass.base" = type { %"class.llvm::Pass.base" }
%"class.llvm::Pass.base" = type <{ ptr, ptr, ptr, i32 }>
%"class.llvm::AnalysisUsage" = type <{ %"class.llvm::SmallVector.96", %"class.llvm::SmallVector.101", %"class.llvm::SmallVector.101", %"class.llvm::SmallVector.103", i8, [7 x i8] }>
%"class.llvm::SmallVector.96" = type { %"class.llvm::SmallVectorImpl.97", %"struct.llvm::SmallVectorStorage.100" }
%"class.llvm::SmallVectorImpl.97" = type { %"class.llvm::SmallVectorTemplateBase.98" }
%"class.llvm::SmallVectorTemplateBase.98" = type { %"class.llvm::SmallVectorTemplateCommon.99" }
%"class.llvm::SmallVectorTemplateCommon.99" = type { %"class.llvm::SmallVectorBase" }
%"struct.llvm::SmallVectorStorage.100" = type { [64 x i8] }
%"class.llvm::SmallVector.101" = type { %"class.llvm::SmallVectorImpl.97", %"struct.llvm::SmallVectorStorage.102" }
%"struct.llvm::SmallVectorStorage.102" = type { [16 x i8] }
%"class.llvm::SmallVector.103" = type { %"class.llvm::SmallVectorImpl.97" }

@_ZN4llvm25UniformityInfoWrapperPass2IDE = external global i8, align 1
@_ZN4llvm24DominatorTreeWrapperPass2IDE = external global i8, align 1

; Function Attrs: mustprogress nounwind uwtable
define linkonce_odr hidden noundef nonnull align 8 dereferenceable(161) ptr @_ZN4llvm13AnalysisUsage12addPreservedINS_24DominatorTreeWrapperPassEEERS0_v(ptr noundef nonnull align 8 dereferenceable(161) %0) #1 comdat align 2 {
  %2 = alloca ptr, align 8
  store ptr %0, ptr %2, align 8
  %3 = load ptr, ptr %2, align 8
  %4 = getelementptr inbounds nuw %"class.llvm::AnalysisUsage", ptr %3, i32 0, i32 2
  call void @_ZN4llvm13AnalysisUsage10pushUniqueERNS_15SmallVectorImplIPKvEES3_(ptr noundef nonnull align 8 dereferenceable(161) %3, ptr noundef nonnull align 8 dereferenceable(16) %4, ptr noundef @_ZN4llvm24DominatorTreeWrapperPass2IDE)
  ret ptr %3
}

; Function Attrs: mustprogress nounwind uwtable
define linkonce_odr hidden noundef nonnull align 8 dereferenceable(161) ptr @_ZN4llvm13AnalysisUsage11addRequiredINS_24DominatorTreeWrapperPassEEERS0_v(ptr noundef nonnull align 8 dereferenceable(161) %0) #1 comdat align 2 {
  %2 = alloca ptr, align 8
  store ptr %0, ptr %2, align 8
  %3 = load ptr, ptr %2, align 8
  %4 = call noundef nonnull align 8 dereferenceable(161) ptr @_ZN4llvm13AnalysisUsage13addRequiredIDERc(ptr noundef nonnull align 8 dereferenceable(161) %3, ptr noundef nonnull align 1 dereferenceable(1) @_ZN4llvm24DominatorTreeWrapperPass2IDE)
  ret ptr %4
}

; Function Attrs: mustprogress nounwind uwtable
define linkonce_odr hidden noundef nonnull align 8 dereferenceable(161) ptr @_ZN4llvm13AnalysisUsage11addRequiredINS_25UniformityInfoWrapperPassEEERS0_v(ptr noundef nonnull align 8 dereferenceable(161) %0) #1 comdat align 2 {
  %2 = alloca ptr, align 8
  store ptr %0, ptr %2, align 8
  %3 = load ptr, ptr %2, align 8
  %4 = call noundef nonnull align 8 dereferenceable(161) ptr @_ZN4llvm13AnalysisUsage13addRequiredIDERc(ptr noundef nonnull align 8 dereferenceable(161) %3, ptr noundef nonnull align 1 dereferenceable(1) @_ZN4llvm25UniformityInfoWrapperPass2IDE)
  ret ptr %4
}

; Function Attrs: mustprogress nounwind uwtable
define internal void @_ZNK12_GLOBAL__N_124StructurizeCFGLegacyPass16getAnalysisUsageERN4llvm13AnalysisUsageE(ptr noundef nonnull align 8 dereferenceable(29) %0, ptr noundef nonnull align 8 dereferenceable(161) %1) unnamed_addr #1 align 2 {
  %3 = alloca ptr, align 8
  %4 = alloca ptr, align 8
  store ptr %0, ptr %3, align 8
  store ptr %1, ptr %4, align 8
  %5 = load ptr, ptr %3, align 8
  %6 = getelementptr inbounds nuw %"class.(anonymous namespace)::StructurizeCFGLegacyPass", ptr %5, i32 0, i32 1
  %7 = load i8, ptr %6, align 4
  %8 = trunc i8 %7 to i1
  br i1 %8, label %9, label %12

9:                                                ; preds = %2
  %10 = load ptr, ptr %4, align 8
  %11 = call noundef nonnull align 8 dereferenceable(161) ptr @_ZN4llvm13AnalysisUsage11addRequiredINS_25UniformityInfoWrapperPassEEERS0_v(ptr noundef nonnull align 8 dereferenceable(161) %10)
  br label %12

12:                                               ; preds = %9, %2
  %13 = load ptr, ptr %4, align 8
  %14 = call noundef nonnull align 8 dereferenceable(161) ptr @_ZN4llvm13AnalysisUsage11addRequiredINS_24DominatorTreeWrapperPassEEERS0_v(ptr noundef nonnull align 8 dereferenceable(161) %13)
  %15 = load ptr, ptr %4, align 8
  %16 = call noundef nonnull align 8 dereferenceable(161) ptr @_ZN4llvm13AnalysisUsage12addPreservedINS_24DominatorTreeWrapperPassEEERS0_v(ptr noundef nonnull align 8 dereferenceable(161) %15)
  %17 = load ptr, ptr %4, align 8
  call void @_ZNK4llvm4Pass16getAnalysisUsageERNS_13AnalysisUsageE(ptr noundef nonnull align 8 dereferenceable(28) %5, ptr noundef nonnull align 8 dereferenceable(161) %17)
  ret void
}